target datalayout = "e-m:e-p270:32:32-p271:32:32-p272:64:64-i64:64-i128:128-f80:128-n8:16:32:64-S128"
target triple = "x86_64-pc-linux-gnu"

%struct.chunkfile = type { ptr, ptr, i64, i64 }
%struct.chunk_info = type { i32, i64, ptr, ptr }

; Function Attrs: nounwind uwtable
define dso_local i32 @read_chunk(ptr noundef %0, i32 noundef %1, ptr noundef %2, ptr noundef %3) #0 {
  %5 = alloca i32, align 4
  %6 = alloca ptr, align 8
  %7 = alloca i32, align 4
  %8 = alloca ptr, align 8
  %9 = alloca ptr, align 8
  %10 = alloca i32, align 4
  %11 = alloca i32, align 4
  store ptr %0, ptr %6, align 8, !tbaa !9
  store i32 %1, ptr %7, align 4, !tbaa !17
  store ptr %2, ptr %8, align 8, !tbaa !20
  store ptr %3, ptr %9, align 8, !tbaa !20
  call void @llvm.lifetime.start.p0(i64 4, ptr %10) #7
  store i32 0, ptr %10, align 4, !tbaa !17
  br label %12

12:                                               ; preds = %51, %4
  %13 = load i32, ptr %10, align 4, !tbaa !17
  %14 = sext i32 %13 to i64
  %15 = load ptr, ptr %6, align 8, !tbaa !9
  %16 = getelementptr inbounds nuw %struct.chunkfile, ptr %15, i32 0, i32 2
  %17 = load i64, ptr %16, align 8, !tbaa !16
  %18 = icmp ult i64 %14, %17
  br i1 %18, label %19, label %54

19:                                               ; preds = %12
  %20 = load ptr, ptr %6, align 8, !tbaa !9
  %21 = getelementptr inbounds nuw %struct.chunkfile, ptr %20, i32 0, i32 1
  %22 = load ptr, ptr %21, align 8, !tbaa !15
  %23 = load i32, ptr %10, align 4, !tbaa !17
  %24 = sext i32 %23 to i64
  %25 = getelementptr inbounds %struct.chunk_info, ptr %22, i64 %24
  %26 = getelementptr inbounds nuw %struct.chunk_info, ptr %25, i32 0, i32 0
  %27 = load i32, ptr %26, align 8, !tbaa !22
  %28 = load i32, ptr %7, align 4, !tbaa !17
  %29 = icmp eq i32 %27, %28
  br i1 %29, label %30, label %50

30:                                               ; preds = %19
  %31 = load ptr, ptr %8, align 8, !tbaa !20
  %32 = load ptr, ptr %6, align 8, !tbaa !9
  %33 = getelementptr inbounds nuw %struct.chunkfile, ptr %32, i32 0, i32 1
  %34 = load ptr, ptr %33, align 8, !tbaa !15
  %35 = load i32, ptr %10, align 4, !tbaa !17
  %36 = sext i32 %35 to i64
  %37 = getelementptr inbounds %struct.chunk_info, ptr %34, i64 %36
  %38 = getelementptr inbounds nuw %struct.chunk_info, ptr %37, i32 0, i32 3
  %39 = load ptr, ptr %38, align 8, !tbaa !59
  %40 = load ptr, ptr %6, align 8, !tbaa !9
  %41 = getelementptr inbounds nuw %struct.chunkfile, ptr %40, i32 0, i32 1
  %42 = load ptr, ptr %41, align 8, !tbaa !15
  %43 = load i32, ptr %10, align 4, !tbaa !17
  %44 = sext i32 %43 to i64
  %45 = getelementptr inbounds %struct.chunk_info, ptr %42, i64 %44
  %46 = getelementptr inbounds nuw %struct.chunk_info, ptr %45, i32 0, i32 1
  %47 = load i64, ptr %46, align 8, !tbaa !25
  %48 = load ptr, ptr %9, align 8, !tbaa !20
  %49 = call i32 %31(ptr noundef %39, i64 noundef %47, ptr noundef %48)
  store i32 %49, ptr %5, align 4
  store i32 1, ptr %11, align 4
  br label %55

50:                                               ; preds = %19
  br label %51

51:                                               ; preds = %50
  %52 = load i32, ptr %10, align 4, !tbaa !17
  %53 = add nsw i32 %52, 1
  store i32 %53, ptr %10, align 4, !tbaa !17
  br label %12, !llvm.loop !69

54:                                               ; preds = %12
  store i32 -2, ptr %5, align 4
  store i32 1, ptr %11, align 4
  br label %55

55:                                               ; preds = %54, %30
  call void @llvm.lifetime.end.p0(i64 4, ptr %10) #7
  %56 = load i32, ptr %5, align 4
  ret i32 %56
}