; Function Attrs: nounwind uwtable
define dso_local i32 @read_chunk(ptr noundef readonly captures(none) %0, i32 noundef %1, ptr noundef readonly captures(none) %2, ptr noundef %3) local_unnamed_addr #0 {
  %5 = getelementptr inbounds nuw i8, ptr %0, i64 16
  %6 = load i64, ptr %5, align 8, !tbaa !13
  %.not = icmp eq i64 %6, 0
  br i1 %.not, label %.loopexit, label %.lr.ph

.lr.ph:                                           ; preds = %4
  %7 = getelementptr inbounds nuw i8, ptr %0, i64 8
  %8 = load ptr, ptr %7, align 8, !tbaa !12
  br label %10

9:                                                ; preds = %10
  %indvars.iv.next = add nuw i64 %indvars.iv, 1
  %exitcond.not = icmp eq i64 %indvars.iv.next, %6
  br i1 %exitcond.not, label %.loopexit, label %10, !llvm.loop !59

10:                                               ; preds = %.lr.ph, %9
  %indvars.iv = phi i64 [ 0, %.lr.ph ], [ %indvars.iv.next, %9 ]
  %11 = getelementptr inbounds nuw %struct.chunk_info, ptr %8, i64 %indvars.iv
  %12 = load i32, ptr %11, align 8, !tbaa !15
  %13 = icmp eq i32 %12, %1
  br i1 %13, label %14, label %9

14:                                               ; preds = %10
  %15 = getelementptr inbounds nuw i8, ptr %11, i64 24
  %16 = load ptr, ptr %15, align 8, !tbaa !57
  %17 = getelementptr inbounds nuw i8, ptr %11, i64 8
  %18 = load i64, ptr %17, align 8, !tbaa !19
  %19 = tail call i32 %2(ptr noundef %16, i64 noundef %18, ptr noundef %3) #11
  br label %.loopexit

.loopexit:                                        ; preds = %9, %4, %14
  %.012 = phi i32 [ %19, %14 ], [ -2, %4 ], [ -2, %9 ]
  ret i32 %.012
}